(dp0
S'pipe1__data__stats'
p1
(lp2
S'receiving_rec'
p3
aS'receiving_tar'
p4
aS'receiving_tds'
p5
aS'receiving_yac_yds'
p6
aS'receiving_yds'
p7
aS'rushing_att'
p8
aS'rushing_tds'
p9
aS'rushing_yds'
p10
asS'pipe1__data__player_info'
p11
(lp12
S'player_id'
p13
aS'full_name'
p14
aS'position'
p15
asS'pipe2__filterplayed__pct_played_threshold'
p16
F0.0
sS'pipe1__lag__lag_cols'
p17
(lp18
S'year'
p19
aS'week'
p20
aS'played'
p21
ag3
ag4
ag5
ag6
ag7
ag8
ag9
ag10
asS'pipe1__mean__mean_cols'
p22
g2
s.