ccopy_reg
_reconstructor
p0
(csklearn.pipeline
Pipeline
p1
c__builtin__
object
p2
Ntp3
Rp4
(dp5
S'steps'
p6
(lp7
(S'pipe1'
p8
g0
(g1
g2
Ntp9
Rp10
(dp11
g6
(lp12
(S'data'
p13
g0
(cml.feature_extraction.nfldb_feature_extraction
WeeklyPlayerData
p14
g2
Ntp15
Rp16
(dp17
S'player_info'
p18
(lp19
S'player_id'
p20
aS'full_name'
p21
aS'position'
p22
asS'stats'
p23
(lp24
S'receiving_rec'
p25
aS'receiving_tar'
p26
aS'receiving_tds'
p27
aS'receiving_yac_yds'
p28
aS'receiving_yds'
p29
aS'rushing_att'
p30
aS'rushing_tds'
p31
aS'rushing_yds'
p32
asS'db'
p33
NsS'yr_wk'
p34
(lp35
(I2012
I1
tp36
a(I2012
I2
tp37
a(I2012
I3
tp38
a(I2012
I4
tp39
a(I2012
I5
tp40
a(I2012
I6
tp41
a(I2012
I7
tp42
a(I2012
I8
tp43
a(I2012
I9
tp44
a(I2012
I10
tp45
a(I2012
I11
tp46
a(I2012
I12
tp47
a(I2012
I13
tp48
a(I2012
I14
tp49
a(I2012
I15
tp50
a(I2012
I16
tp51
a(I2012
I17
tp52
a(I2013
I1
tp53
a(I2013
I2
tp54
a(I2013
I3
tp55
a(I2013
I4
tp56
a(I2013
I5
tp57
a(I2013
I6
tp58
a(I2013
I7
tp59
a(I2013
I8
tp60
a(I2013
I9
tp61
a(I2013
I10
tp62
a(I2013
I11
tp63
a(I2013
I12
tp64
a(I2013
I13
tp65
a(I2013
I14
tp66
a(I2013
I15
tp67
a(I2013
I16
tp68
a(I2013
I17
tp69
a(I2014
I1
tp70
a(I2014
I2
tp71
a(I2014
I3
tp72
a(I2014
I4
tp73
a(I2014
I5
tp74
a(I2014
I6
tp75
a(I2014
I7
tp76
a(I2014
I8
tp77
a(I2014
I9
tp78
a(I2014
I10
tp79
a(I2014
I11
tp80
a(I2014
I12
tp81
a(I2014
I13
tp82
a(I2014
I14
tp83
a(I2014
I15
tp84
a(I2014
I16
tp85
a(I2014
I17
tp86
a(I2015
I1
tp87
a(I2015
I2
tp88
a(I2015
I3
tp89
a(I2015
I4
tp90
a(I2015
I5
tp91
asS'fill_time'
p92
I01
sg22
S'RB'
p93
sbtp94
a(S'lag'
p95
g0
(cml.feature_extraction.nfldb_feature_extraction
LagPlayerData
p96
g2
Ntp97
Rp98
(dp99
S'nlag'
p100
I6
sS'same_year_bool'
p101
I01
sS'groupby_cols'
p102
(lp103
g20
asS'lag_cols'
p104
(lp105
S'year'
p106
aS'week'
p107
aS'played'
p108
ag25
ag26
ag27
ag28
ag29
ag30
ag31
ag32
asbtp109
a(S'mean'
p110
g0
(cml.feature_extraction.nfldb_feature_extraction
MeanPlayerData
p111
g2
Ntp112
Rp113
(dp114
S'mean_cols'
p115
g24
sg102
(lp116
g20
asbtp117
asS'named_steps'
p118
(dp119
g95
g98
sg13
g16
sg110
g113
ssbtp120
a(S'pipe2'
p121
g0
(g1
g2
Ntp122
Rp123
(dp124
g6
(lp125
(S'handle'
p126
g0
(cml.feature_extraction.nfldb_feature_extraction
HandleNaN
p127
g2
Ntp128
Rp129
(dp130
S'method'
p131
S'fill'
p132
sbtp133
a(S'filterplayed'
p134
g0
(cml.feature_extraction.nfldb_feature_extraction
FilterPlayedPercent
p135
g2
Ntp136
Rp137
(dp138
S'pct_played_threshold'
p139
F0.0
sbtp140
asg118
(dp141
g134
g137
sg126
g129
ssbtp142
asg118
(dp143
g8
g10
sg121
g123
ssb.