ccopy_reg
_reconstructor
p0
(csklearn.pipeline
Pipeline
p1
c__builtin__
object
p2
Ntp3
Rp4
(dp5
S'steps'
p6
(lp7
(S'pipe1'
p8
g0
(g1
g2
Ntp9
Rp10
(dp11
g6
(lp12
(S'data'
p13
g0
(cml.feature_extraction.nfldb_feature_extraction
WeeklyPlayerData
p14
g2
Ntp15
Rp16
(dp17
S'player_info'
p18
(lp19
S'player_id'
p20
aS'full_name'
p21
aS'position'
p22
asS'stats'
p23
(lp24
S'receiving_rec'
p25
aS'receiving_tar'
p26
aS'receiving_tds'
p27
aS'receiving_yac_yds'
p28
aS'receiving_yds'
p29
aS'rushing_att'
p30
aS'rushing_tds'
p31
aS'rushing_yds'
p32
asS'db'
p33
NsS'yr_wk'
p34
(lp35
(I2009
I1
tp36
a(I2009
I2
tp37
a(I2009
I3
tp38
a(I2009
I4
tp39
a(I2009
I5
tp40
a(I2009
I6
tp41
a(I2009
I7
tp42
a(I2009
I8
tp43
a(I2009
I9
tp44
a(I2009
I10
tp45
a(I2009
I11
tp46
a(I2009
I12
tp47
a(I2009
I13
tp48
a(I2009
I14
tp49
a(I2009
I15
tp50
a(I2009
I16
tp51
a(I2009
I17
tp52
a(I2010
I1
tp53
a(I2010
I2
tp54
a(I2010
I3
tp55
a(I2010
I4
tp56
a(I2010
I5
tp57
a(I2010
I6
tp58
a(I2010
I7
tp59
a(I2010
I8
tp60
a(I2010
I9
tp61
a(I2010
I10
tp62
a(I2010
I11
tp63
a(I2010
I12
tp64
a(I2010
I13
tp65
a(I2010
I14
tp66
a(I2010
I15
tp67
a(I2010
I16
tp68
a(I2010
I17
tp69
a(I2011
I1
tp70
a(I2011
I2
tp71
a(I2011
I3
tp72
a(I2011
I4
tp73
a(I2011
I5
tp74
a(I2011
I6
tp75
a(I2011
I7
tp76
a(I2011
I8
tp77
a(I2011
I9
tp78
a(I2011
I10
tp79
a(I2011
I11
tp80
a(I2011
I12
tp81
a(I2011
I13
tp82
a(I2011
I14
tp83
a(I2011
I15
tp84
a(I2011
I16
tp85
a(I2011
I17
tp86
a(I2012
I1
tp87
a(I2012
I2
tp88
a(I2012
I3
tp89
a(I2012
I4
tp90
a(I2012
I5
tp91
a(I2012
I6
tp92
a(I2012
I7
tp93
a(I2012
I8
tp94
a(I2012
I9
tp95
a(I2012
I10
tp96
a(I2012
I11
tp97
a(I2012
I12
tp98
a(I2012
I13
tp99
a(I2012
I14
tp100
a(I2012
I15
tp101
a(I2012
I16
tp102
a(I2012
I17
tp103
a(I2013
I1
tp104
a(I2013
I2
tp105
a(I2013
I3
tp106
a(I2013
I4
tp107
a(I2013
I5
tp108
a(I2013
I6
tp109
a(I2013
I7
tp110
a(I2013
I8
tp111
a(I2013
I9
tp112
a(I2013
I10
tp113
a(I2013
I11
tp114
a(I2013
I12
tp115
a(I2013
I13
tp116
a(I2013
I14
tp117
a(I2013
I15
tp118
a(I2013
I16
tp119
a(I2013
I17
tp120
a(I2014
I1
tp121
a(I2014
I2
tp122
a(I2014
I3
tp123
a(I2014
I4
tp124
a(I2014
I5
tp125
a(I2014
I6
tp126
a(I2014
I7
tp127
a(I2014
I8
tp128
a(I2014
I9
tp129
a(I2014
I10
tp130
a(I2014
I11
tp131
a(I2014
I12
tp132
a(I2014
I13
tp133
a(I2014
I14
tp134
a(I2014
I15
tp135
a(I2014
I16
tp136
a(I2014
I17
tp137
a(I2015
I1
tp138
a(I2015
I2
tp139
a(I2015
I3
tp140
a(I2015
I4
tp141
a(I2015
I5
tp142
a(I2015
I6
tp143
asS'fill_time'
p144
I01
sg22
S'RB'
p145
sbtp146
a(S'lag'
p147
g0
(cml.feature_extraction.nfldb_feature_extraction
LagPlayerData
p148
g2
Ntp149
Rp150
(dp151
S'nlag'
p152
I6
sS'same_year_bool'
p153
I01
sS'groupby_cols'
p154
(lp155
g20
asS'lag_cols'
p156
(lp157
S'year'
p158
aS'week'
p159
aS'played'
p160
ag25
ag26
ag27
ag28
ag29
ag30
ag31
ag32
asbtp161
a(S'mean'
p162
g0
(cml.feature_extraction.nfldb_feature_extraction
MeanPlayerData
p163
g2
Ntp164
Rp165
(dp166
S'mean_cols'
p167
g24
sg154
(lp168
g20
asbtp169
asS'named_steps'
p170
(dp171
g147
g150
sg13
g16
sg162
g165
ssbtp172
a(S'pipe2'
p173
g0
(g1
g2
Ntp174
Rp175
(dp176
g6
(lp177
(S'handle'
p178
g0
(cml.feature_extraction.nfldb_feature_extraction
HandleNaN
p179
g2
Ntp180
Rp181
(dp182
S'method'
p183
S'fill'
p184
sbtp185
a(S'filterplayed'
p186
g0
(cml.feature_extraction.nfldb_feature_extraction
FilterPlayedPercent
p187
g2
Ntp188
Rp189
(dp190
S'pct_played_threshold'
p191
F0.0
sbtp192
asg170
(dp193
g186
g189
sg178
g181
ssbtp194
asg170
(dp195
g8
g10
sg173
g175
ssb.